target datalayout = "e-m:e-p270:32:32-p271:32:32-p272:64:64-i64:64-i128:128-f80:128-n8:16:32:64-S128"
target triple = "x86_64-pc-linux-gnu"

%"class.ncnn::MultiHeadAttention" = type <{ %"class.ncnn::Layer", i32, i32, i32, i32, i32, i32, float, i32, %"class.ncnn::Mat", %"class.ncnn::Mat", %"class.ncnn::Mat", %"class.ncnn::Mat", %"class.ncnn::Mat", %"class.ncnn::Mat", %"class.ncnn::Mat", %"class.ncnn::Mat", %"class.ncnn::Mat", %"class.ncnn::Mat", %"class.ncnn::Mat", float, [4 x i8] }>
%"class.ncnn::Layer" = type { ptr, i8, i8, i8, i8, i8, i8, i8, i8, i8, i8, i8, i8, i8, i8, i8, i8, i8, i8, i8, i8, i32, ptr, i32, %"class.std::__cxx11::basic_string", %"class.std::__cxx11::basic_string", %"class.std::vector", %"class.std::vector", %"class.std::vector.3", %"class.std::vector.3" }
%"class.std::__cxx11::basic_string" = type { %"struct.std::__cxx11::basic_string<char>::_Alloc_hider", i64, %union.anon }
%"struct.std::__cxx11::basic_string<char>::_Alloc_hider" = type { ptr }
%union.anon = type { i64, [8 x i8] }
%"class.std::vector" = type { %"struct.std::_Vector_base" }
%"struct.std::_Vector_base" = type { %"struct.std::_Vector_base<int, std::allocator<int>>::_Vector_impl" }
%"struct.std::_Vector_base<int, std::allocator<int>>::_Vector_impl" = type { %"struct.std::_Vector_base<int, std::allocator<int>>::_Vector_impl_data" }
%"struct.std::_Vector_base<int, std::allocator<int>>::_Vector_impl_data" = type { ptr, ptr, ptr }
%"class.std::vector.3" = type { %"struct.std::_Vector_base.4" }
%"struct.std::_Vector_base.4" = type { %"struct.std::_Vector_base<ncnn::Mat, std::allocator<ncnn::Mat>>::_Vector_impl" }
%"struct.std::_Vector_base<ncnn::Mat, std::allocator<ncnn::Mat>>::_Vector_impl" = type { %"struct.std::_Vector_base<ncnn::Mat, std::allocator<ncnn::Mat>>::_Vector_impl_data" }
%"struct.std::_Vector_base<ncnn::Mat, std::allocator<ncnn::Mat>>::_Vector_impl_data" = type { ptr, ptr, ptr }
%"class.ncnn::Mat" = type { ptr, ptr, i64, i32, ptr, i32, i32, i32, i32, i32, i64 }
%"class.ncnn::Option" = type { i8, i32, ptr, ptr, i32, i8, i8, i8, i8, i8, i8, i8, i8, i8, i8, i8, i8, i8, i8, i8, i8, i8, i8, i8, i8, i32, i8, i8, i8, i8, i8, i8, i8, i8, i8, i8, i8, i8 }
%"class.ncnn::MultiHeadAttention_x86_fma" = type { %"class.ncnn::MultiHeadAttention.base", ptr, ptr, ptr, ptr, ptr, ptr, ptr }
%"class.ncnn::MultiHeadAttention.base" = type <{ %"class.ncnn::Layer", i32, i32, i32, i32, i32, i32, float, i32, %"class.ncnn::Mat", %"class.ncnn::Mat", %"class.ncnn::Mat", %"class.ncnn::Mat", %"class.ncnn::Mat", %"class.ncnn::Mat", %"class.ncnn::Mat", %"class.ncnn::Mat", %"class.ncnn::Mat", %"class.ncnn::Mat", %"class.ncnn::Mat", float }>

; Function Attrs: mustprogress uwtable
define hidden noundef i32 @_ZN4ncnn26MultiHeadAttention_x86_fma16destroy_pipelineERKNS_6OptionE(ptr noundef nonnull align 8 dereferenceable(1096) %0, ptr noundef nonnull align 8 dereferenceable(64) %1) unnamed_addr #2 align 2 {
  %3 = alloca ptr, align 8
  %4 = alloca ptr, align 8
  %5 = alloca %"class.ncnn::Option", align 8
  store ptr %0, ptr %3, align 8, !tbaa !11
  store ptr %1, ptr %4, align 8, !tbaa !13
  %6 = load ptr, ptr %3, align 8
  call void @llvm.lifetime.start.p0(i64 64, ptr %5) #11
  %7 = load ptr, ptr %4, align 8, !tbaa !13
  call void @llvm.memcpy.p0.p0.i64(ptr align 8 %5, ptr align 8 %7, i64 64, i1 false), !tbaa.struct !15
  %8 = getelementptr inbounds nuw %"class.ncnn::MultiHeadAttention", ptr %6, i32 0, i32 8
  %9 = load i32, ptr %8, align 4, !tbaa !22
  %10 = icmp ne i32 %9, 0
  br i1 %10, label %11, label %13

11:                                               ; preds = %2
  %12 = getelementptr inbounds nuw %"class.ncnn::Option", ptr %5, i32 0, i32 16
  store i8 0, ptr %12, align 1, !tbaa !42
  br label %13

13:                                               ; preds = %11, %2
  %14 = getelementptr inbounds nuw %"class.ncnn::MultiHeadAttention_x86_fma", ptr %6, i32 0, i32 7
  %15 = load ptr, ptr %14, align 8, !tbaa !44
  %16 = icmp ne ptr %15, null
  br i1 %16, label %17, label %33

17:                                               ; preds = %13
  %18 = getelementptr inbounds nuw %"class.ncnn::MultiHeadAttention_x86_fma", ptr %6, i32 0, i32 7
  %19 = load ptr, ptr %18, align 8, !tbaa !44
  %20 = load ptr, ptr %19, align 8, !tbaa !9
  %21 = getelementptr inbounds ptr, ptr %20, i64 5
  %22 = load ptr, ptr %21, align 8
  %23 = call noundef i32 %22(ptr noundef nonnull align 8 dereferenceable(208) %19, ptr noundef nonnull align 8 dereferenceable(64) %5)
  %24 = getelementptr inbounds nuw %"class.ncnn::MultiHeadAttention_x86_fma", ptr %6, i32 0, i32 7
  %25 = load ptr, ptr %24, align 8, !tbaa !44
  %26 = icmp eq ptr %25, null
  br i1 %26, label %31, label %27

27:                                               ; preds = %17
  %28 = load ptr, ptr %25, align 8, !tbaa !9
  %29 = getelementptr inbounds ptr, ptr %28, i64 1
  %30 = load ptr, ptr %29, align 8
  call void %30(ptr noundef nonnull align 8 dereferenceable(208) %25) #11
  br label %31

31:                                               ; preds = %27, %17
  %32 = getelementptr inbounds nuw %"class.ncnn::MultiHeadAttention_x86_fma", ptr %6, i32 0, i32 7
  store ptr null, ptr %32, align 8, !tbaa !44
  br label %33

33:                                               ; preds = %31, %13
  %34 = getelementptr inbounds nuw %"class.ncnn::MultiHeadAttention_x86_fma", ptr %6, i32 0, i32 1
  %35 = load ptr, ptr %34, align 8, !tbaa !49
  %36 = icmp ne ptr %35, null
  br i1 %36, label %37, label %53

37:                                               ; preds = %33
  %38 = getelementptr inbounds nuw %"class.ncnn::MultiHeadAttention_x86_fma", ptr %6, i32 0, i32 1
  %39 = load ptr, ptr %38, align 8, !tbaa !49
  %40 = load ptr, ptr %39, align 8, !tbaa !9
  %41 = getelementptr inbounds ptr, ptr %40, i64 5
  %42 = load ptr, ptr %41, align 8
  %43 = call noundef i32 %42(ptr noundef nonnull align 8 dereferenceable(208) %39, ptr noundef nonnull align 8 dereferenceable(64) %5)
  %44 = getelementptr inbounds nuw %"class.ncnn::MultiHeadAttention_x86_fma", ptr %6, i32 0, i32 1
  %45 = load ptr, ptr %44, align 8, !tbaa !49
  %46 = icmp eq ptr %45, null
  br i1 %46, label %51, label %47

47:                                               ; preds = %37
  %48 = load ptr, ptr %45, align 8, !tbaa !9
  %49 = getelementptr inbounds ptr, ptr %48, i64 1
  %50 = load ptr, ptr %49, align 8
  call void %50(ptr noundef nonnull align 8 dereferenceable(208) %45) #11
  br label %51

51:                                               ; preds = %47, %37
  %52 = getelementptr inbounds nuw %"class.ncnn::MultiHeadAttention_x86_fma", ptr %6, i32 0, i32 1
  store ptr null, ptr %52, align 8, !tbaa !49
  br label %53

53:                                               ; preds = %51, %33
  %54 = getelementptr inbounds nuw %"class.ncnn::MultiHeadAttention_x86_fma", ptr %6, i32 0, i32 2
  %55 = load ptr, ptr %54, align 8, !tbaa !54
  %56 = icmp ne ptr %55, null
  br i1 %56, label %57, label %73

57:                                               ; preds = %53
  %58 = getelementptr inbounds nuw %"class.ncnn::MultiHeadAttention_x86_fma", ptr %6, i32 0, i32 2
  %59 = load ptr, ptr %58, align 8, !tbaa !54
  %60 = load ptr, ptr %59, align 8, !tbaa !9
  %61 = getelementptr inbounds ptr, ptr %60, i64 5
  %62 = load ptr, ptr %61, align 8
  %63 = call noundef i32 %62(ptr noundef nonnull align 8 dereferenceable(208) %59, ptr noundef nonnull align 8 dereferenceable(64) %5)
  %64 = getelementptr inbounds nuw %"class.ncnn::MultiHeadAttention_x86_fma", ptr %6, i32 0, i32 2
  %65 = load ptr, ptr %64, align 8, !tbaa !54
  %66 = icmp eq ptr %65, null
  br i1 %66, label %71, label %67

67:                                               ; preds = %57
  %68 = load ptr, ptr %65, align 8, !tbaa !9
  %69 = getelementptr inbounds ptr, ptr %68, i64 1
  %70 = load ptr, ptr %69, align 8
  call void %70(ptr noundef nonnull align 8 dereferenceable(208) %65) #11
  br label %71

71:                                               ; preds = %67, %57
  %72 = getelementptr inbounds nuw %"class.ncnn::MultiHeadAttention_x86_fma", ptr %6, i32 0, i32 2
  store ptr null, ptr %72, align 8, !tbaa !54
  br label %73

73:                                               ; preds = %71, %53
  %74 = getelementptr inbounds nuw %"class.ncnn::MultiHeadAttention_x86_fma", ptr %6, i32 0, i32 3
  %75 = load ptr, ptr %74, align 8, !tbaa !56
  %76 = icmp ne ptr %75, null
  br i1 %76, label %77, label %93

77:                                               ; preds = %73
  %78 = getelementptr inbounds nuw %"class.ncnn::MultiHeadAttention_x86_fma", ptr %6, i32 0, i32 3
  %79 = load ptr, ptr %78, align 8, !tbaa !56
  %80 = load ptr, ptr %79, align 8, !tbaa !9
  %81 = getelementptr inbounds ptr, ptr %80, i64 5
  %82 = load ptr, ptr %81, align 8
  %83 = call noundef i32 %82(ptr noundef nonnull align 8 dereferenceable(208) %79, ptr noundef nonnull align 8 dereferenceable(64) %5)
  %84 = getelementptr inbounds nuw %"class.ncnn::MultiHeadAttention_x86_fma", ptr %6, i32 0, i32 3
  %85 = load ptr, ptr %84, align 8, !tbaa !56
  %86 = icmp eq ptr %85, null
  br i1 %86, label %91, label %87

87:                                               ; preds = %77
  %88 = load ptr, ptr %85, align 8, !tbaa !9
  %89 = getelementptr inbounds ptr, ptr %88, i64 1
  %90 = load ptr, ptr %89, align 8
  call void %90(ptr noundef nonnull align 8 dereferenceable(208) %85) #11
  br label %91

91:                                               ; preds = %87, %77
  %92 = getelementptr inbounds nuw %"class.ncnn::MultiHeadAttention_x86_fma", ptr %6, i32 0, i32 3
  store ptr null, ptr %92, align 8, !tbaa !56
  br label %93

93:                                               ; preds = %91, %73
  %94 = getelementptr inbounds nuw %"class.ncnn::MultiHeadAttention_x86_fma", ptr %6, i32 0, i32 4
  %95 = load ptr, ptr %94, align 8, !tbaa !58
  %96 = icmp ne ptr %95, null
  br i1 %96, label %97, label %113

97:                                               ; preds = %93
  %98 = getelementptr inbounds nuw %"class.ncnn::MultiHeadAttention_x86_fma", ptr %6, i32 0, i32 4
  %99 = load ptr, ptr %98, align 8, !tbaa !58
  %100 = load ptr, ptr %99, align 8, !tbaa !9
  %101 = getelementptr inbounds ptr, ptr %100, i64 5
  %102 = load ptr, ptr %101, align 8
  %103 = call noundef i32 %102(ptr noundef nonnull align 8 dereferenceable(208) %99, ptr noundef nonnull align 8 dereferenceable(64) %5)
  %104 = getelementptr inbounds nuw %"class.ncnn::MultiHeadAttention_x86_fma", ptr %6, i32 0, i32 4
  %105 = load ptr, ptr %104, align 8, !tbaa !58
  %106 = icmp eq ptr %105, null
  br i1 %106, label %111, label %107

107:                                              ; preds = %97
  %108 = load ptr, ptr %105, align 8, !tbaa !9
  %109 = getelementptr inbounds ptr, ptr %108, i64 1
  %110 = load ptr, ptr %109, align 8
  call void %110(ptr noundef nonnull align 8 dereferenceable(208) %105) #11
  br label %111

111:                                              ; preds = %107, %97
  %112 = getelementptr inbounds nuw %"class.ncnn::MultiHeadAttention_x86_fma", ptr %6, i32 0, i32 4
  store ptr null, ptr %112, align 8, !tbaa !58
  br label %113

113:                                              ; preds = %111, %93
  %114 = getelementptr inbounds nuw %"class.ncnn::MultiHeadAttention_x86_fma", ptr %6, i32 0, i32 5
  %115 = load ptr, ptr %114, align 8, !tbaa !61
  %116 = icmp ne ptr %115, null
  br i1 %116, label %117, label %133

117:                                              ; preds = %113
  %118 = getelementptr inbounds nuw %"class.ncnn::MultiHeadAttention_x86_fma", ptr %6, i32 0, i32 5
  %119 = load ptr, ptr %118, align 8, !tbaa !61
  %120 = load ptr, ptr %119, align 8, !tbaa !9
  %121 = getelementptr inbounds ptr, ptr %120, i64 5
  %122 = load ptr, ptr %121, align 8
  %123 = call noundef i32 %122(ptr noundef nonnull align 8 dereferenceable(208) %119, ptr noundef nonnull align 8 dereferenceable(64) %5)
  %124 = getelementptr inbounds nuw %"class.ncnn::MultiHeadAttention_x86_fma", ptr %6, i32 0, i32 5
  %125 = load ptr, ptr %124, align 8, !tbaa !61
  %126 = icmp eq ptr %125, null
  br i1 %126, label %131, label %127

127:                                              ; preds = %117
  %128 = load ptr, ptr %125, align 8, !tbaa !9
  %129 = getelementptr inbounds ptr, ptr %128, i64 1
  %130 = load ptr, ptr %129, align 8
  call void %130(ptr noundef nonnull align 8 dereferenceable(208) %125) #11
  br label %131

131:                                              ; preds = %127, %117
  %132 = getelementptr inbounds nuw %"class.ncnn::MultiHeadAttention_x86_fma", ptr %6, i32 0, i32 5
  store ptr null, ptr %132, align 8, !tbaa !61
  br label %133

133:                                              ; preds = %131, %113
  %134 = getelementptr inbounds nuw %"class.ncnn::MultiHeadAttention_x86_fma", ptr %6, i32 0, i32 6
  %135 = load ptr, ptr %134, align 8, !tbaa !64
  %136 = icmp ne ptr %135, null
  br i1 %136, label %137, label %153

137:                                              ; preds = %133
  %138 = getelementptr inbounds nuw %"class.ncnn::MultiHeadAttention_x86_fma", ptr %6, i32 0, i32 6
  %139 = load ptr, ptr %138, align 8, !tbaa !64
  %140 = load ptr, ptr %139, align 8, !tbaa !9
  %141 = getelementptr inbounds ptr, ptr %140, i64 5
  %142 = load ptr, ptr %141, align 8
  %143 = call noundef i32 %142(ptr noundef nonnull align 8 dereferenceable(208) %139, ptr noundef nonnull align 8 dereferenceable(64) %5)
  %144 = getelementptr inbounds nuw %"class.ncnn::MultiHeadAttention_x86_fma", ptr %6, i32 0, i32 6
  %145 = load ptr, ptr %144, align 8, !tbaa !64
  %146 = icmp eq ptr %145, null
  br i1 %146, label %151, label %147

147:                                              ; preds = %137
  %148 = load ptr, ptr %145, align 8, !tbaa !9
  %149 = getelementptr inbounds ptr, ptr %148, i64 1
  %150 = load ptr, ptr %149, align 8
  call void %150(ptr noundef nonnull align 8 dereferenceable(208) %145) #11
  br label %151

151:                                              ; preds = %147, %137
  %152 = getelementptr inbounds nuw %"class.ncnn::MultiHeadAttention_x86_fma", ptr %6, i32 0, i32 6
  store ptr null, ptr %152, align 8, !tbaa !64
  br label %153

153:                                              ; preds = %151, %133
  call void @llvm.lifetime.end.p0(i64 64, ptr %5) #11
  ret i32 0
}