; Function Attrs: mustprogress uwtable
define hidden noundef i32 @_ZN4ncnn26MultiHeadAttention_x86_fma16destroy_pipelineERKNS_6OptionE(ptr noundef nonnull align 8 captures(none) dereferenceable(1096) %0, ptr noundef nonnull readonly align 8 captures(none) dereferenceable(64) %1) unnamed_addr #2 align 2 {
  %3 = alloca %"class.ncnn::Option", align 8
  call void @llvm.lifetime.start.p0(i64 64, ptr nonnull %3) #10
  call void @llvm.memcpy.p0.p0.i64(ptr noundef nonnull align 8 dereferenceable(64) %3, ptr noundef nonnull align 8 dereferenceable(64) %1, i64 64, i1 false), !tbaa.struct !18
  %4 = getelementptr inbounds nuw i8, ptr %0, i64 236
  %5 = load i32, ptr %4, align 4, !tbaa !23
  %.not = icmp eq i32 %5, 0
  br i1 %.not, label %8, label %6

6:                                                ; preds = %2
  %7 = getelementptr inbounds nuw i8, ptr %3, i64 39
  store i8 0, ptr %7, align 1, !tbaa !40
  br label %8

8:                                                ; preds = %6, %2
  %9 = getelementptr inbounds nuw i8, ptr %0, i64 1088
  %10 = load ptr, ptr %9, align 8, !tbaa !42
  %.not15 = icmp eq ptr %10, null
  br i1 %.not15, label %23, label %11

11:                                               ; preds = %8
  %12 = load ptr, ptr %10, align 8, !tbaa !4
  %13 = getelementptr inbounds nuw i8, ptr %12, i64 40
  %14 = load ptr, ptr %13, align 8
  %15 = call noundef i32 %14(ptr noundef nonnull align 8 dereferenceable(208) %10, ptr noundef nonnull align 8 dereferenceable(64) %3)
  %16 = load ptr, ptr %9, align 8, !tbaa !42
  %17 = icmp eq ptr %16, null
  br i1 %17, label %22, label %18

18:                                               ; preds = %11
  %19 = load ptr, ptr %16, align 8, !tbaa !4
  %20 = getelementptr inbounds nuw i8, ptr %19, i64 8
  %21 = load ptr, ptr %20, align 8
  call void %21(ptr noundef nonnull align 8 dereferenceable(208) %16) #10
  br label %22

22:                                               ; preds = %18, %11
  store ptr null, ptr %9, align 8, !tbaa !42
  br label %23

23:                                               ; preds = %22, %8
  %24 = getelementptr inbounds nuw i8, ptr %0, i64 1040
  %25 = load ptr, ptr %24, align 8, !tbaa !47
  %.not16 = icmp eq ptr %25, null
  br i1 %.not16, label %38, label %26

26:                                               ; preds = %23
  %27 = load ptr, ptr %25, align 8, !tbaa !4
  %28 = getelementptr inbounds nuw i8, ptr %27, i64 40
  %29 = load ptr, ptr %28, align 8
  %30 = call noundef i32 %29(ptr noundef nonnull align 8 dereferenceable(208) %25, ptr noundef nonnull align 8 dereferenceable(64) %3)
  %31 = load ptr, ptr %24, align 8, !tbaa !47
  %32 = icmp eq ptr %31, null
  br i1 %32, label %37, label %33

33:                                               ; preds = %26
  %34 = load ptr, ptr %31, align 8, !tbaa !4
  %35 = getelementptr inbounds nuw i8, ptr %34, i64 8
  %36 = load ptr, ptr %35, align 8
  call void %36(ptr noundef nonnull align 8 dereferenceable(208) %31) #10
  br label %37

37:                                               ; preds = %33, %26
  store ptr null, ptr %24, align 8, !tbaa !47
  br label %38

38:                                               ; preds = %37, %23
  %39 = getelementptr inbounds nuw i8, ptr %0, i64 1048
  %40 = load ptr, ptr %39, align 8, !tbaa !59
  %.not17 = icmp eq ptr %40, null
  br i1 %.not17, label %53, label %41

41:                                               ; preds = %38
  %42 = load ptr, ptr %40, align 8, !tbaa !4
  %43 = getelementptr inbounds nuw i8, ptr %42, i64 40
  %44 = load ptr, ptr %43, align 8
  %45 = call noundef i32 %44(ptr noundef nonnull align 8 dereferenceable(208) %40, ptr noundef nonnull align 8 dereferenceable(64) %3)
  %46 = load ptr, ptr %39, align 8, !tbaa !59
  %47 = icmp eq ptr %46, null
  br i1 %47, label %52, label %48

48:                                               ; preds = %41
  %49 = load ptr, ptr %46, align 8, !tbaa !4
  %50 = getelementptr inbounds nuw i8, ptr %49, i64 8
  %51 = load ptr, ptr %50, align 8
  call void %51(ptr noundef nonnull align 8 dereferenceable(208) %46) #10
  br label %52

52:                                               ; preds = %48, %41
  store ptr null, ptr %39, align 8, !tbaa !59
  br label %53

53:                                               ; preds = %52, %38
  %54 = getelementptr inbounds nuw i8, ptr %0, i64 1056
  %55 = load ptr, ptr %54, align 8, !tbaa !61
  %.not18 = icmp eq ptr %55, null
  br i1 %.not18, label %68, label %56

56:                                               ; preds = %53
  %57 = load ptr, ptr %55, align 8, !tbaa !4
  %58 = getelementptr inbounds nuw i8, ptr %57, i64 40
  %59 = load ptr, ptr %58, align 8
  %60 = call noundef i32 %59(ptr noundef nonnull align 8 dereferenceable(208) %55, ptr noundef nonnull align 8 dereferenceable(64) %3)
  %61 = load ptr, ptr %54, align 8, !tbaa !61
  %62 = icmp eq ptr %61, null
  br i1 %62, label %67, label %63

63:                                               ; preds = %56
  %64 = load ptr, ptr %61, align 8, !tbaa !4
  %65 = getelementptr inbounds nuw i8, ptr %64, i64 8
  %66 = load ptr, ptr %65, align 8
  call void %66(ptr noundef nonnull align 8 dereferenceable(208) %61) #10
  br label %67

67:                                               ; preds = %63, %56
  store ptr null, ptr %54, align 8, !tbaa !61
  br label %68

68:                                               ; preds = %67, %53
  %69 = getelementptr inbounds nuw i8, ptr %0, i64 1064
  %70 = load ptr, ptr %69, align 8, !tbaa !63
  %.not19 = icmp eq ptr %70, null
  br i1 %.not19, label %83, label %71

71:                                               ; preds = %68
  %72 = load ptr, ptr %70, align 8, !tbaa !4
  %73 = getelementptr inbounds nuw i8, ptr %72, i64 40
  %74 = load ptr, ptr %73, align 8
  %75 = call noundef i32 %74(ptr noundef nonnull align 8 dereferenceable(208) %70, ptr noundef nonnull align 8 dereferenceable(64) %3)
  %76 = load ptr, ptr %69, align 8, !tbaa !63
  %77 = icmp eq ptr %76, null
  br i1 %77, label %82, label %78

78:                                               ; preds = %71
  %79 = load ptr, ptr %76, align 8, !tbaa !4
  %80 = getelementptr inbounds nuw i8, ptr %79, i64 8
  %81 = load ptr, ptr %80, align 8
  call void %81(ptr noundef nonnull align 8 dereferenceable(208) %76) #10
  br label %82

82:                                               ; preds = %78, %71
  store ptr null, ptr %69, align 8, !tbaa !63
  br label %83

83:                                               ; preds = %82, %68
  %84 = getelementptr inbounds nuw i8, ptr %0, i64 1072
  %85 = load ptr, ptr %84, align 8, !tbaa !66
  %.not20 = icmp eq ptr %85, null
  br i1 %.not20, label %98, label %86

86:                                               ; preds = %83
  %87 = load ptr, ptr %85, align 8, !tbaa !4
  %88 = getelementptr inbounds nuw i8, ptr %87, i64 40
  %89 = load ptr, ptr %88, align 8
  %90 = call noundef i32 %89(ptr noundef nonnull align 8 dereferenceable(208) %85, ptr noundef nonnull align 8 dereferenceable(64) %3)
  %91 = load ptr, ptr %84, align 8, !tbaa !66
  %92 = icmp eq ptr %91, null
  br i1 %92, label %97, label %93

93:                                               ; preds = %86
  %94 = load ptr, ptr %91, align 8, !tbaa !4
  %95 = getelementptr inbounds nuw i8, ptr %94, i64 8
  %96 = load ptr, ptr %95, align 8
  call void %96(ptr noundef nonnull align 8 dereferenceable(208) %91) #10
  br label %97

97:                                               ; preds = %93, %86
  store ptr null, ptr %84, align 8, !tbaa !66
  br label %98

98:                                               ; preds = %97, %83
  %99 = getelementptr inbounds nuw i8, ptr %0, i64 1080
  %100 = load ptr, ptr %99, align 8, !tbaa !69
  %.not21 = icmp eq ptr %100, null
  br i1 %.not21, label %113, label %101

101:                                              ; preds = %98
  %102 = load ptr, ptr %100, align 8, !tbaa !4
  %103 = getelementptr inbounds nuw i8, ptr %102, i64 40
  %104 = load ptr, ptr %103, align 8
  %105 = call noundef i32 %104(ptr noundef nonnull align 8 dereferenceable(208) %100, ptr noundef nonnull align 8 dereferenceable(64) %3)
  %106 = load ptr, ptr %99, align 8, !tbaa !69
  %107 = icmp eq ptr %106, null
  br i1 %107, label %112, label %108

108:                                              ; preds = %101
  %109 = load ptr, ptr %106, align 8, !tbaa !4
  %110 = getelementptr inbounds nuw i8, ptr %109, i64 8
  %111 = load ptr, ptr %110, align 8
  call void %111(ptr noundef nonnull align 8 dereferenceable(208) %106) #10
  br label %112

112:                                              ; preds = %108, %101
  store ptr null, ptr %99, align 8, !tbaa !69
  br label %113

113:                                              ; preds = %112, %98
  call void @llvm.lifetime.end.p0(i64 64, ptr nonnull %3) #10
  ret i32 0
}